target datalayout = "e-m:e-p270:32:32-p271:32:32-p272:64:64-i64:64-i128:128-f80:128-n8:16:32:64-S128"
target triple = "x86_64-pc-linux-gnu"

%struct.InvalMessageArray = type { ptr, i32 }
%struct.TransInvalidationInfo = type { %struct.InvalidationInfo, %struct.InvalidationMsgsGroup, ptr, i32 }
%struct.InvalidationInfo = type { %struct.InvalidationMsgsGroup, i8 }
%struct.InvalidationMsgsGroup = type { [2 x i32], [2 x i32] }

@transInvalInfo = internal global ptr null, align 8
@InvalMessageArrays = internal global [2 x %struct.InvalMessageArray] zeroinitializer, align 16
@inplaceInvalInfo = internal global ptr null, align 8

; Function Attrs: nounwind uwtable
define internal ptr @PrepareInplaceInvalidationState() #0 {
  %1 = alloca ptr, align 8
  call void @llvm.lifetime.start.p0(i64 8, ptr %1) #7
  %2 = call ptr @palloc0(i64 noundef 20)
  store ptr %2, ptr %1, align 8
  %3 = load ptr, ptr @transInvalInfo, align 8
  %4 = icmp ne ptr %3, null
  br i1 %4, label %5, label %43

5:                                                ; preds = %0
  br label %6

6:                                                ; preds = %5
  br label %7

7:                                                ; preds = %6
  %8 = load ptr, ptr @transInvalInfo, align 8
  %9 = getelementptr inbounds nuw %struct.TransInvalidationInfo, ptr %8, i32 0, i32 0
  %10 = getelementptr inbounds nuw %struct.InvalidationInfo, ptr %9, i32 0, i32 0
  %11 = getelementptr inbounds nuw %struct.InvalidationMsgsGroup, ptr %10, i32 0, i32 1
  %12 = getelementptr inbounds [2 x i32], ptr %11, i64 0, i64 0
  %13 = load i32, ptr %12, align 8
  %14 = load ptr, ptr %1, align 8
  %15 = getelementptr inbounds nuw %struct.InvalidationInfo, ptr %14, i32 0, i32 0
  %16 = getelementptr inbounds nuw %struct.InvalidationMsgsGroup, ptr %15, i32 0, i32 1
  %17 = getelementptr inbounds [2 x i32], ptr %16, i64 0, i64 0
  store i32 %13, ptr %17, align 4
  %18 = load ptr, ptr %1, align 8
  %19 = getelementptr inbounds nuw %struct.InvalidationInfo, ptr %18, i32 0, i32 0
  %20 = getelementptr inbounds nuw %struct.InvalidationMsgsGroup, ptr %19, i32 0, i32 0
  %21 = getelementptr inbounds [2 x i32], ptr %20, i64 0, i64 0
  store i32 %13, ptr %21, align 4
  br label %22

22:                                               ; preds = %7
  br label %23

23:                                               ; preds = %22
  br label %24

24:                                               ; preds = %23
  %25 = load ptr, ptr @transInvalInfo, align 8
  %26 = getelementptr inbounds nuw %struct.TransInvalidationInfo, ptr %25, i32 0, i32 0
  %27 = getelementptr inbounds nuw %struct.InvalidationInfo, ptr %26, i32 0, i32 0
  %28 = getelementptr inbounds nuw %struct.InvalidationMsgsGroup, ptr %27, i32 0, i32 1
  %29 = getelementptr inbounds [2 x i32], ptr %28, i64 0, i64 1
  %30 = load i32, ptr %29, align 4
  %31 = load ptr, ptr %1, align 8
  %32 = getelementptr inbounds nuw %struct.InvalidationInfo, ptr %31, i32 0, i32 0
  %33 = getelementptr inbounds nuw %struct.InvalidationMsgsGroup, ptr %32, i32 0, i32 1
  %34 = getelementptr inbounds [2 x i32], ptr %33, i64 0, i64 1
  store i32 %30, ptr %34, align 4
  %35 = load ptr, ptr %1, align 8
  %36 = getelementptr inbounds nuw %struct.InvalidationInfo, ptr %35, i32 0, i32 0
  %37 = getelementptr inbounds nuw %struct.InvalidationMsgsGroup, ptr %36, i32 0, i32 0
  %38 = getelementptr inbounds [2 x i32], ptr %37, i64 0, i64 1
  store i32 %30, ptr %38, align 4
  br label %39

39:                                               ; preds = %24
  br label %40

40:                                               ; preds = %39
  br label %41

41:                                               ; preds = %40
  br label %42

42:                                               ; preds = %41
  br label %44

43:                                               ; preds = %0
  store ptr null, ptr @InvalMessageArrays, align 16
  store i32 0, ptr getelementptr inbounds nuw (%struct.InvalMessageArray, ptr @InvalMessageArrays, i32 0, i32 1), align 8
  store ptr null, ptr getelementptr inbounds ([2 x %struct.InvalMessageArray], ptr @InvalMessageArrays, i64 0, i64 1), align 16
  store i32 0, ptr getelementptr inbounds nuw (%struct.InvalMessageArray, ptr getelementptr inbounds ([2 x %struct.InvalMessageArray], ptr @InvalMessageArrays, i64 0, i64 1), i32 0, i32 1), align 8
  br label %44

44:                                               ; preds = %43, %42
  %45 = load ptr, ptr %1, align 8
  store ptr %45, ptr @inplaceInvalInfo, align 8
  %46 = load ptr, ptr %1, align 8
  call void @llvm.lifetime.end.p0(i64 8, ptr %1) #7
  ret ptr %46
}