; Function Attrs: nounwind uwtable
define internal ptr @PrepareInplaceInvalidationState() #0 {
  %1 = tail call ptr @palloc0(i64 noundef 20) #7
  %2 = load ptr, ptr @transInvalInfo, align 8
  %.not = icmp eq ptr %2, null
  br i1 %.not, label %11, label %3

3:                                                ; preds = %0
  %4 = getelementptr inbounds nuw i8, ptr %2, i64 8
  %5 = load i32, ptr %4, align 8
  %6 = getelementptr inbounds nuw i8, ptr %1, i64 8
  store i32 %5, ptr %6, align 4
  store i32 %5, ptr %1, align 4
  %7 = getelementptr inbounds nuw i8, ptr %2, i64 12
  %8 = load i32, ptr %7, align 4
  %9 = getelementptr inbounds nuw i8, ptr %1, i64 12
  store i32 %8, ptr %9, align 4
  %10 = getelementptr inbounds nuw i8, ptr %1, i64 4
  store i32 %8, ptr %10, align 4
  br label %12

11:                                               ; preds = %0
  store ptr null, ptr @InvalMessageArrays.0, align 16
  store i32 0, ptr @InvalMessageArrays.1, align 8
  store ptr null, ptr @InvalMessageArrays.2, align 16
  store i32 0, ptr @InvalMessageArrays.3, align 8
  br label %12

12:                                               ; preds = %11, %3
  store ptr %1, ptr @inplaceInvalInfo, align 8
  ret ptr %1
}